; Function Attrs: mustprogress uwtable
define hidden void @_ZN4cvc58internal6theory5arith2nl7NlModel10resetCheckEv(ptr noundef nonnull align 8 dereferenceable(369) initializes((368, 369)) %0) local_unnamed_addr #3 align 2 personality ptr @__gxx_personality_v0 {
  %2 = getelementptr inbounds nuw i8, ptr %0, i64 368
  store i8 0, ptr %2, align 8, !tbaa !46
  %3 = getelementptr inbounds nuw i8, ptr %0, i64 312
  %4 = getelementptr inbounds nuw i8, ptr %0, i64 328
  %5 = load ptr, ptr %4, align 8, !tbaa !36
  %.not5.i.i.i = icmp eq ptr %5, null
  br i1 %.not5.i.i.i, label %_ZNSt13unordered_mapIN4cvc58internal12NodeTemplateILb1EEES3_St4hashIS3_ESt8equal_toIS3_ESaISt4pairIKS3_S3_EEE5clearEv.exit, label %.lr.ph.i.i.i

.lr.ph.i.i.i:                                     ; preds = %1, %.noexc.i.i
  %.06.i.i.i = phi ptr [ %6, %.noexc.i.i ], [ %5, %1 ]
  %6 = load ptr, ptr %.06.i.i.i, align 8, !tbaa !37
  invoke void @_ZNSt8__detail16_Hashtable_allocISaINS_10_Hash_nodeISt4pairIKN4cvc58internal12NodeTemplateILb1EEES6_ELb1EEEEE18_M_deallocate_nodeEPS9_(ptr noundef nonnull align 8 dereferenceable(56) %3, ptr noundef nonnull %.06.i.i.i)
          to label %.noexc.i.i unwind label %7

.noexc.i.i:                                       ; preds = %.lr.ph.i.i.i
  %.not.i.i.i = icmp eq ptr %6, null
  br i1 %.not.i.i.i, label %_ZNSt13unordered_mapIN4cvc58internal12NodeTemplateILb1EEES3_St4hashIS3_ESt8equal_toIS3_ESaISt4pairIKS3_S3_EEE5clearEv.exit, label %.lr.ph.i.i.i, !llvm.loop !38

7:                                                ; preds = %.lr.ph.i.i.i
  %8 = landingpad { ptr, i32 }
          catch ptr null
  %9 = extractvalue { ptr, i32 } %8, 0
  tail call void @__clang_call_terminate(ptr %9) #27
  unreachable

_ZNSt13unordered_mapIN4cvc58internal12NodeTemplateILb1EEES3_St4hashIS3_ESt8equal_toIS3_ESaISt4pairIKS3_S3_EEE5clearEv.exit: ; preds = %.noexc.i.i, %1
  %10 = load ptr, ptr %3, align 8, !tbaa !23
  %11 = getelementptr inbounds nuw i8, ptr %0, i64 320
  %12 = load i64, ptr %11, align 8, !tbaa !30
  %13 = shl i64 %12, 3
  tail call void @llvm.memset.p0.i64(ptr align 8 %10, i8 0, i64 %13, i1 false)
  tail call void @llvm.memset.p0.i64(ptr noundef nonnull align 8 dereferenceable(16) %4, i8 0, i64 16, i1 false)
  %14 = getelementptr inbounds nuw i8, ptr %0, i64 264
  %15 = getelementptr inbounds nuw i8, ptr %0, i64 280
  %16 = load ptr, ptr %15, align 8, !tbaa !14
  invoke void @_ZNSt8_Rb_treeIN4cvc58internal12NodeTemplateILb1EEESt4pairIKS3_S4_IS3_S3_EESt10_Select1stIS7_ESt4lessIS3_ESaIS7_EE8_M_eraseEPSt13_Rb_tree_nodeIS7_E(ptr noundef nonnull align 8 dereferenceable(48) %14, ptr noundef %16)
          to label %_ZNSt3mapIN4cvc58internal12NodeTemplateILb1EEESt4pairIS3_S3_ESt4lessIS3_ESaIS4_IKS3_S5_EEE5clearEv.exit unwind label %17

17:                                               ; preds = %_ZNSt13unordered_mapIN4cvc58internal12NodeTemplateILb1EEES3_St4hashIS3_ESt8equal_toIS3_ESaISt4pairIKS3_S3_EEE5clearEv.exit
  %18 = landingpad { ptr, i32 }
          catch ptr null
  %19 = extractvalue { ptr, i32 } %18, 0
  tail call void @__clang_call_terminate(ptr %19) #27
  unreachable

_ZNSt3mapIN4cvc58internal12NodeTemplateILb1EEESt4pairIS3_S3_ESt4lessIS3_ESaIS4_IKS3_S5_EEE5clearEv.exit: ; preds = %_ZNSt13unordered_mapIN4cvc58internal12NodeTemplateILb1EEES3_St4hashIS3_ESt8equal_toIS3_ESaISt4pairIKS3_S3_EEE5clearEv.exit
  %20 = getelementptr inbounds nuw i8, ptr %0, i64 272
  store ptr null, ptr %15, align 8, !tbaa !14
  %21 = getelementptr inbounds nuw i8, ptr %0, i64 288
  store ptr %20, ptr %21, align 8, !tbaa !15
  %22 = getelementptr inbounds nuw i8, ptr %0, i64 296
  store ptr %20, ptr %22, align 8, !tbaa !16
  %23 = getelementptr inbounds nuw i8, ptr %0, i64 304
  store i64 0, ptr %23, align 8, !tbaa !17
  %24 = getelementptr inbounds nuw i8, ptr %0, i64 160
  tail call void @_ZN4cvc58internal4Subs5clearEv(ptr noundef nonnull align 8 dereferenceable(56) %24)
  ret void
}